target datalayout = "e-m:e-p270:32:32-p271:32:32-p272:64:64-i64:64-i128:128-f80:128-n8:16:32:64-S128"
target triple = "x86_64-pc-linux-gnu"

%struct.luaL_Buffer = type { ptr, i64, i64, ptr, %union.anon }
%union.anon = type { double, [1016 x i8] }

; Function Attrs: nounwind uwtable
define internal i32 @str_upper(ptr noundef %0) #0 {
  %2 = alloca ptr, align 8
  %3 = alloca i64, align 8
  %4 = alloca i64, align 8
  %5 = alloca %struct.luaL_Buffer, align 8
  %6 = alloca ptr, align 8
  %7 = alloca ptr, align 8
  %8 = alloca i32, align 4
  %9 = alloca i32, align 4
  store ptr %0, ptr %2, align 8, !tbaa !4
  call void @llvm.lifetime.start.p0(i64 8, ptr %3) #11
  call void @llvm.lifetime.start.p0(i64 8, ptr %4) #11
  call void @llvm.lifetime.start.p0(i64 1056, ptr %5) #11
  call void @llvm.lifetime.start.p0(i64 8, ptr %6) #11
  %10 = load ptr, ptr %2, align 8, !tbaa !4
  %11 = call ptr @luaL_checklstring(ptr noundef %10, i32 noundef 1, ptr noundef %3)
  store ptr %11, ptr %6, align 8, !tbaa !9
  call void @llvm.lifetime.start.p0(i64 8, ptr %7) #11
  %12 = load ptr, ptr %2, align 8, !tbaa !4
  %13 = load i64, ptr %3, align 8, !tbaa !13
  %14 = call ptr @luaL_buffinitsize(ptr noundef %12, ptr noundef %5, i64 noundef %13)
  store ptr %14, ptr %7, align 8, !tbaa !9
  store i64 0, ptr %4, align 8, !tbaa !13
  br label %15

15:                                               ; preds = %36, %1
  %16 = load i64, ptr %4, align 8, !tbaa !13
  %17 = load i64, ptr %3, align 8, !tbaa !13
  %18 = icmp ult i64 %16, %17
  br i1 %18, label %19, label %39

19:                                               ; preds = %15
  call void @llvm.lifetime.start.p0(i64 4, ptr %8) #11
  %20 = call ptr @__ctype_toupper_loc() #13
  %21 = load ptr, ptr %20, align 8, !tbaa !35
  %22 = load ptr, ptr %6, align 8, !tbaa !9
  %23 = load i64, ptr %4, align 8, !tbaa !13
  %24 = getelementptr inbounds nuw i8, ptr %22, i64 %23
  %25 = load i8, ptr %24, align 1, !tbaa !17
  %26 = zext i8 %25 to i32
  %27 = sext i32 %26 to i64
  %28 = getelementptr inbounds i32, ptr %21, i64 %27
  %29 = load i32, ptr %28, align 4, !tbaa !15
  store i32 %29, ptr %8, align 4, !tbaa !15
  %30 = load i32, ptr %8, align 4, !tbaa !15
  store i32 %30, ptr %9, align 4, !tbaa !15
  call void @llvm.lifetime.end.p0(i64 4, ptr %8) #11
  %31 = load i32, ptr %9, align 4, !tbaa !15
  %32 = trunc i32 %31 to i8
  %33 = load ptr, ptr %7, align 8, !tbaa !9
  %34 = load i64, ptr %4, align 8, !tbaa !13
  %35 = getelementptr inbounds nuw i8, ptr %33, i64 %34
  store i8 %32, ptr %35, align 1, !tbaa !17
  br label %36

36:                                               ; preds = %19
  %37 = load i64, ptr %4, align 8, !tbaa !13
  %38 = add i64 %37, 1
  store i64 %38, ptr %4, align 8, !tbaa !13
  br label %15

39:                                               ; preds = %15
  %40 = load i64, ptr %3, align 8, !tbaa !13
  call void @luaL_pushresultsize(ptr noundef %5, i64 noundef %40)
  call void @llvm.lifetime.end.p0(i64 8, ptr %7) #11
  call void @llvm.lifetime.end.p0(i64 8, ptr %6) #11
  call void @llvm.lifetime.end.p0(i64 1056, ptr %5) #11
  call void @llvm.lifetime.end.p0(i64 8, ptr %4) #11
  call void @llvm.lifetime.end.p0(i64 8, ptr %3) #11
  ret i32 1
}